target datalayout = "e-m:e-p270:32:32-p271:32:32-p272:64:64-i64:64-i128:128-f80:128-n8:16:32:64-S128"
target triple = "x86_64-pc-linux-gnu"

; Function Attrs: mustprogress nounwind uwtable
define linkonce_odr hidden noundef zeroext i1 @_ZN13MethodHandles18ref_kind_is_methodEi(i32 noundef %0) #1 comdat align 2 {
  %2 = alloca i32, align 4
  store i32 %0, ptr %2, align 4
  %3 = load i32, ptr %2, align 4
  %4 = call noundef zeroext i1 @_ZN13MethodHandles17ref_kind_is_fieldEi(i32 noundef %3)
  br i1 %4, label %8, label %5

5:                                                ; preds = %1
  %6 = load i32, ptr %2, align 4
  %7 = icmp ne i32 %6, 8
  br label %8

8:                                                ; preds = %5, %1
  %9 = phi i1 [ false, %1 ], [ %7, %5 ]
  ret i1 %9
}

; Function Attrs: mustprogress nounwind uwtable
define linkonce_odr hidden noundef zeroext i1 @_ZN13MethodHandles17ref_kind_is_fieldEi(i32 noundef %0) #1 comdat align 2 {
  %2 = alloca i32, align 4
  store i32 %0, ptr %2, align 4
  %3 = load i32, ptr %2, align 4
  %4 = icmp sle i32 %3, 4
  ret i1 %4
}

; Function Attrs: mustprogress nounwind uwtable
define hidden noundef i32 @_ZN13MethodHandles17ref_kind_to_flagsEi(i32 noundef %0) #1 align 2 {
  %2 = alloca i32, align 4
  %3 = alloca i32, align 4
  store i32 %0, ptr %2, align 4
  %4 = load i32, ptr %2, align 4
  %5 = shl i32 %4, 24
  store i32 %5, ptr %3, align 4
  %6 = load i32, ptr %2, align 4
  %7 = call noundef zeroext i1 @_ZN13MethodHandles17ref_kind_is_fieldEi(i32 noundef %6)
  br i1 %7, label %8, label %11

8:                                                ; preds = %1
  %9 = load i32, ptr %3, align 4
  %10 = or i32 %9, 262144
  store i32 %10, ptr %3, align 4
  br label %25

11:                                               ; preds = %1
  %12 = load i32, ptr %2, align 4
  %13 = call noundef zeroext i1 @_ZN13MethodHandles18ref_kind_is_methodEi(i32 noundef %12)
  br i1 %13, label %14, label %17

14:                                               ; preds = %11
  %15 = load i32, ptr %3, align 4
  %16 = or i32 %15, 65536
  store i32 %16, ptr %3, align 4
  br label %24

17:                                               ; preds = %11
  %18 = load i32, ptr %2, align 4
  %19 = icmp eq i32 %18, 8
  br i1 %19, label %20, label %23

20:                                               ; preds = %17
  %21 = load i32, ptr %3, align 4
  %22 = or i32 %21, 131072
  store i32 %22, ptr %3, align 4
  br label %23

23:                                               ; preds = %20, %17
  br label %24

24:                                               ; preds = %23, %14
  br label %25

25:                                               ; preds = %24, %8
  %26 = load i32, ptr %3, align 4
  ret i32 %26
}