; Function Attrs: mustprogress nofree norecurse nosync nounwind willreturn memory(none) uwtable
define hidden noundef i32 @_ZN13MethodHandles17ref_kind_to_flagsEi(i32 noundef %0) local_unnamed_addr #4 align 2 {
  %2 = shl i32 %0, 24
  %3 = icmp slt i32 %0, 5
  %4 = or disjoint i32 %2, 262144
  %.not = icmp eq i32 %0, 8
  %5 = or disjoint i32 %2, 65536
  %spec.select = select i1 %.not, i32 134348800, i32 %5
  %.0 = select i1 %3, i32 %4, i32 %spec.select
  ret i32 %.0
}